target datalayout = "e-m:e-p270:32:32-p271:32:32-p272:64:64-i64:64-i128:128-f80:128-n8:16:32:64-S128"
target triple = "x86_64-pc-linux-gnu"

%struct._object = type { %union.anon, ptr }
%union.anon = type { i64 }
%struct._Py_ext_module_loader_info = type { ptr, ptr, ptr, ptr, ptr, i32, ptr, ptr }
%struct.anon = type { i32, i32 }

@.str.2 = private unnamed_addr constant [6 x i8] c"ascii\00", align 1
@.str.3 = private unnamed_addr constant [7 x i8] c"PyInit\00", align 1

; Function Attrs: alwaysinline nounwind uwtable
define internal void @Py_INCREF(ptr noundef %0) #2 {
  %2 = alloca ptr, align 8
  %3 = alloca i32, align 4
  %4 = alloca i32, align 4
  store ptr %0, ptr %2, align 8, !tbaa !11
  call void @llvm.lifetime.start.p0(i64 4, ptr %3) #7
  %5 = load ptr, ptr %2, align 8, !tbaa !11
  %6 = getelementptr inbounds nuw %struct._object, ptr %5, i32 0, i32 0
  %7 = getelementptr inbounds nuw %struct.anon, ptr %6, i32 0, i32 0
  %8 = load i32, ptr %7, align 8, !tbaa !13
  store i32 %8, ptr %3, align 4, !tbaa !14
  %9 = load i32, ptr %3, align 4, !tbaa !14
  %10 = icmp slt i32 %9, 0
  br i1 %10, label %11, label %12

11:                                               ; preds = %1
  store i32 1, ptr %4, align 4
  br label %18

12:                                               ; preds = %1
  %13 = load i32, ptr %3, align 4, !tbaa !14
  %14 = add i32 %13, 1
  %15 = load ptr, ptr %2, align 8, !tbaa !11
  %16 = getelementptr inbounds nuw %struct._object, ptr %15, i32 0, i32 0
  %17 = getelementptr inbounds nuw %struct.anon, ptr %16, i32 0, i32 0
  store i32 %14, ptr %17, align 8, !tbaa !13
  store i32 0, ptr %4, align 4
  br label %18

18:                                               ; preds = %12, %11
  call void @llvm.lifetime.end.p0(i64 4, ptr %3) #7
  %19 = load i32, ptr %4, align 4
  switch i32 %19, label %21 [
    i32 0, label %20
    i32 1, label %20
  ]

20:                                               ; preds = %18, %18
  ret void

21:                                               ; preds = %18
  unreachable
}

; Function Attrs: inlinehint nounwind uwtable
define internal ptr @_Py_NewRef(ptr noundef %0) #4 {
  %2 = alloca ptr, align 8
  store ptr %0, ptr %2, align 8, !tbaa !11
  %3 = load ptr, ptr %2, align 8, !tbaa !11
  call void @Py_INCREF(ptr noundef %3)
  %4 = load ptr, ptr %2, align 8, !tbaa !11
  ret ptr %4
}

; Function Attrs: nounwind uwtable
define hidden i32 @_Py_ext_module_loader_info_init_for_builtin(ptr noundef %0, ptr noundef %1) #0 {
  %3 = alloca i32, align 4
  %4 = alloca ptr, align 8
  %5 = alloca ptr, align 8
  %6 = alloca ptr, align 8
  %7 = alloca i32, align 4
  %8 = alloca %struct._Py_ext_module_loader_info, align 8
  store ptr %0, ptr %4, align 8, !tbaa !4
  store ptr %1, ptr %5, align 8, !tbaa !11
  call void @llvm.lifetime.start.p0(i64 8, ptr %6) #7
  %9 = load ptr, ptr %5, align 8, !tbaa !11
  %10 = call ptr @PyUnicode_AsEncodedString(ptr noundef %9, ptr noundef @.str.2, ptr noundef null)
  store ptr %10, ptr %6, align 8, !tbaa !11
  %11 = load ptr, ptr %6, align 8, !tbaa !11
  %12 = icmp eq ptr %11, null
  br i1 %12, label %13, label %14

13:                                               ; preds = %2
  store i32 -1, ptr %3, align 4
  store i32 1, ptr %7, align 4
  br label %29

14:                                               ; preds = %2
  %15 = load ptr, ptr %4, align 8, !tbaa !4
  %16 = getelementptr inbounds nuw %struct._Py_ext_module_loader_info, ptr %8, i32 0, i32 0
  store ptr null, ptr %16, align 8, !tbaa !22
  %17 = getelementptr inbounds nuw %struct._Py_ext_module_loader_info, ptr %8, i32 0, i32 1
  store ptr null, ptr %17, align 8, !tbaa !23
  %18 = getelementptr inbounds nuw %struct._Py_ext_module_loader_info, ptr %8, i32 0, i32 2
  %19 = load ptr, ptr %5, align 8, !tbaa !11
  %20 = call ptr @_Py_NewRef(ptr noundef %19)
  store ptr %20, ptr %18, align 8, !tbaa !19
  %21 = getelementptr inbounds nuw %struct._Py_ext_module_loader_info, ptr %8, i32 0, i32 3
  %22 = load ptr, ptr %6, align 8, !tbaa !11
  store ptr %22, ptr %21, align 8, !tbaa !20
  %23 = getelementptr inbounds nuw %struct._Py_ext_module_loader_info, ptr %8, i32 0, i32 4
  %24 = load ptr, ptr %5, align 8, !tbaa !11
  store ptr %24, ptr %23, align 8, !tbaa !24
  %25 = getelementptr inbounds nuw %struct._Py_ext_module_loader_info, ptr %8, i32 0, i32 5
  store i32 2, ptr %25, align 8, !tbaa !16
  %26 = getelementptr i8, ptr %8, i64 44
  call void @llvm.memset.p0.i64(ptr align 4 %26, i8 0, i64 4, i1 false)
  %27 = getelementptr inbounds nuw %struct._Py_ext_module_loader_info, ptr %8, i32 0, i32 6
  store ptr @.str.3, ptr %27, align 8, !tbaa !42
  %28 = getelementptr inbounds nuw %struct._Py_ext_module_loader_info, ptr %8, i32 0, i32 7
  store ptr null, ptr %28, align 8, !tbaa !21
  call void @llvm.memcpy.p0.p0.i64(ptr align 8 %15, ptr align 8 %8, i64 64, i1 false), !tbaa.struct !25
  store i32 0, ptr %3, align 4
  store i32 1, ptr %7, align 4
  br label %29

29:                                               ; preds = %14, %13
  call void @llvm.lifetime.end.p0(i64 8, ptr %6) #7
  %30 = load i32, ptr %3, align 4
  ret i32 %30
}

; Function Attrs: nounwind uwtable
define hidden i32 @_Py_ext_module_loader_info_init_for_core(ptr noundef %0, ptr noundef %1) #0 {
  %3 = alloca i32, align 4
  %4 = alloca ptr, align 8
  %5 = alloca ptr, align 8
  store ptr %0, ptr %4, align 8, !tbaa !4
  store ptr %1, ptr %5, align 8, !tbaa !11
  %6 = load ptr, ptr %4, align 8, !tbaa !4
  %7 = load ptr, ptr %5, align 8, !tbaa !11
  %8 = call i32 @_Py_ext_module_loader_info_init_for_builtin(ptr noundef %6, ptr noundef %7)
  %9 = icmp slt i32 %8, 0
  br i1 %9, label %10, label %11

10:                                               ; preds = %2
  store i32 -1, ptr %3, align 4
  br label %14

11:                                               ; preds = %2
  %12 = load ptr, ptr %4, align 8, !tbaa !4
  %13 = getelementptr inbounds nuw %struct._Py_ext_module_loader_info, ptr %12, i32 0, i32 5
  store i32 1, ptr %13, align 8, !tbaa !16
  store i32 0, ptr %3, align 4
  br label %14

14:                                               ; preds = %11, %10
  %15 = load i32, ptr %3, align 4
  ret i32 %15
}